target datalayout = "e-m:e-p270:32:32-p271:32:32-p272:64:64-i64:64-i128:128-f80:128-n8:16:32:64-S128"
target triple = "x86_64-pc-linux-gnu"

%struct.H5Z_cb_t = type { ptr, ptr }
%struct.H5T_vlen_alloc_info_t = type { ptr, ptr, ptr, ptr }
%struct.H5T_conv_cb_t = type { ptr, ptr }
%struct.H5CX_node_t = type { %struct.H5CX_t, ptr }
%struct.H5CX_t = type { i64, ptr, i64, ptr, i64, ptr, i64, ptr, i64, ptr, i64, ptr, i64, i32, i64, i8, ptr, i8, ptr, i8, i32, i8, [3 x double], i8, i64, i8, i32, i8, %struct.H5Z_cb_t, i8, ptr, i8, %struct.H5T_vlen_alloc_info_t, i8, %struct.H5T_conv_cb_t, i8, i32, i8, i8, i8, i32, i8, i8, i32, i8, i8, i32, i8, i32, i8, i64, i8, i8, i8, i8, i8, ptr, i8, ptr, i8, i32, i8, i32, i8, %struct.H5VL_connector_prop_t, i8, ptr, i8 }
%struct.H5VL_connector_prop_t = type { i64, ptr }

@H5CX_head_g = internal global ptr null, align 8

; Function Attrs: nounwind uwtable
define i32 @H5CX_set_libver_bounds(ptr noundef %0) #0 {
  %2 = alloca ptr, align 8
  %3 = alloca ptr, align 8
  %4 = alloca i32, align 4
  store ptr %0, ptr %2, align 8
  store ptr null, ptr %3, align 8
  store i32 0, ptr %4, align 4
  store ptr @H5CX_head_g, ptr %3, align 8
  %5 = load ptr, ptr %2, align 8
  %6 = icmp eq ptr %5, null
  br i1 %6, label %7, label %8

7:                                                ; preds = %1
  br label %11

8:                                                ; preds = %1
  %9 = load ptr, ptr %2, align 8
  %10 = call i32 @H5F_get_low_bound(ptr noundef %9)
  br label %11

11:                                               ; preds = %8, %7
  %12 = phi i32 [ 5, %7 ], [ %10, %8 ]
  %13 = load ptr, ptr %3, align 8
  %14 = load ptr, ptr %13, align 8
  %15 = getelementptr inbounds %struct.H5CX_node_t, ptr %14, i32 0, i32 0
  %16 = getelementptr inbounds %struct.H5CX_t, ptr %15, i32 0, i32 60
  store i32 %12, ptr %16, align 4
  %17 = load ptr, ptr %2, align 8
  %18 = icmp eq ptr %17, null
  br i1 %18, label %19, label %20

19:                                               ; preds = %11
  br label %23

20:                                               ; preds = %11
  %21 = load ptr, ptr %2, align 8
  %22 = call i32 @H5F_get_high_bound(ptr noundef %21)
  br label %23

23:                                               ; preds = %20, %19
  %24 = phi i32 [ 5, %19 ], [ %22, %20 ]
  %25 = load ptr, ptr %3, align 8
  %26 = load ptr, ptr %25, align 8
  %27 = getelementptr inbounds %struct.H5CX_node_t, ptr %26, i32 0, i32 0
  %28 = getelementptr inbounds %struct.H5CX_t, ptr %27, i32 0, i32 62
  store i32 %24, ptr %28, align 4
  %29 = load ptr, ptr %3, align 8
  %30 = load ptr, ptr %29, align 8
  %31 = getelementptr inbounds %struct.H5CX_node_t, ptr %30, i32 0, i32 0
  %32 = getelementptr inbounds %struct.H5CX_t, ptr %31, i32 0, i32 61
  store i8 1, ptr %32, align 8
  %33 = load ptr, ptr %3, align 8
  %34 = load ptr, ptr %33, align 8
  %35 = getelementptr inbounds %struct.H5CX_node_t, ptr %34, i32 0, i32 0
  %36 = getelementptr inbounds %struct.H5CX_t, ptr %35, i32 0, i32 63
  store i8 1, ptr %36, align 8
  %37 = load i32, ptr %4, align 4
  ret i32 %37
}