; Function Attrs: nounwind uwtable
define noundef i32 @H5CX_set_libver_bounds(ptr noundef %0) local_unnamed_addr #0 {
  %2 = icmp eq ptr %0, null
  br i1 %2, label %.critedge, label %3

3:                                                ; preds = %1
  %4 = tail call i32 @H5F_get_low_bound(ptr noundef nonnull %0) #13
  %5 = load ptr, ptr @H5CX_head_g, align 8
  %6 = getelementptr inbounds i8, ptr %5, i64 412
  store i32 %4, ptr %6, align 4
  %7 = tail call i32 @H5F_get_high_bound(ptr noundef nonnull %0) #13
  %.pre = load ptr, ptr @H5CX_head_g, align 8
  br label %10

.critedge:                                        ; preds = %1
  %8 = load ptr, ptr @H5CX_head_g, align 8
  %9 = getelementptr inbounds i8, ptr %8, i64 412
  store i32 5, ptr %9, align 4
  br label %10

10:                                               ; preds = %.critedge, %3
  %11 = phi ptr [ %.pre, %3 ], [ %8, %.critedge ]
  %12 = phi i32 [ %7, %3 ], [ 5, %.critedge ]
  %13 = getelementptr inbounds i8, ptr %11, i64 420
  store i32 %12, ptr %13, align 4
  %14 = getelementptr inbounds i8, ptr %11, i64 416
  store i8 1, ptr %14, align 8
  %15 = getelementptr inbounds i8, ptr %11, i64 424
  store i8 1, ptr %15, align 8
  ret i32 0
}